; Function Attrs: nounwind uwtable
define dso_local range(i32 0, 2) i32 @onig_is_code_in_cc(ptr noundef readonly captures(none) %0, i32 noundef %1, ptr noundef readonly captures(none) %2) local_unnamed_addr #6 {
  %4 = getelementptr inbounds nuw i8, ptr %0, i64 20
  %5 = load i32, ptr %4, align 4, !tbaa !66
  %6 = icmp sgt i32 %5, 1
  br i1 %6, label %.thread, label %7

7:                                                ; preds = %3
  %8 = getelementptr inbounds nuw i8, ptr %0, i64 40
  %9 = load ptr, ptr %8, align 8, !tbaa !180
  %10 = tail call i32 %9(i32 noundef %1) #22
  %11 = icmp slt i32 %10, 0
  br i1 %11, label %51, label %12

12:                                               ; preds = %7
  %13 = icmp samesign ugt i32 %10, 1
  %14 = icmp ugt i32 %1, 255
  %or.cond.i = or i1 %14, %13
  br i1 %or.cond.i, label %.thread, label %39

.thread:                                          ; preds = %3, %12
  %15 = getelementptr inbounds nuw i8, ptr %2, i64 56
  %16 = load ptr, ptr %15, align 8, !tbaa !119
  %17 = icmp eq ptr %16, null
  br i1 %17, label %onig_is_code_in_cc_len.exit, label %18

18:                                               ; preds = %.thread
  %19 = load ptr, ptr %16, align 8, !tbaa !126
  %20 = load i32, ptr %19, align 4, !tbaa !4
  %21 = getelementptr inbounds nuw i8, ptr %19, i64 4
  %.not.i.i = icmp eq i32 %20, 0
  br i1 %.not.i.i, label %._crit_edge.i.i, label %.lr.ph.i.i

.lr.ph.i.i:                                       ; preds = %18, %.lr.ph.i.i
  %.020.i.i = phi i32 [ %.1.i.i, %.lr.ph.i.i ], [ %20, %18 ]
  %.01719.i.i = phi i32 [ %.118.i.i, %.lr.ph.i.i ], [ 0, %18 ]
  %22 = add i32 %.01719.i.i, %.020.i.i
  %23 = lshr i32 %22, 1
  %24 = or i32 %22, 1
  %25 = zext i32 %24 to i64
  %26 = getelementptr inbounds nuw i32, ptr %21, i64 %25
  %27 = load i32, ptr %26, align 4, !tbaa !4
  %28 = icmp ugt i32 %1, %27
  %29 = add nuw i32 %23, 1
  %.118.i.i = select i1 %28, i32 %29, i32 %.01719.i.i
  %.1.i.i = select i1 %28, i32 %.020.i.i, i32 %23
  %30 = icmp ult i32 %.118.i.i, %.1.i.i
  br i1 %30, label %.lr.ph.i.i, label %._crit_edge.i.i, !llvm.loop !179

._crit_edge.i.i:                                  ; preds = %.lr.ph.i.i, %18
  %.017.lcssa.i.i = phi i32 [ 0, %18 ], [ %.118.i.i, %.lr.ph.i.i ]
  %31 = icmp ult i32 %.017.lcssa.i.i, %20
  br i1 %31, label %32, label %onig_is_code_in_cc_len.exit

32:                                               ; preds = %._crit_edge.i.i
  %33 = shl i32 %.017.lcssa.i.i, 1
  %34 = zext i32 %33 to i64
  %35 = getelementptr inbounds nuw i32, ptr %21, i64 %34
  %36 = load i32, ptr %35, align 4, !tbaa !4
  %37 = icmp uge i32 %1, %36
  %38 = zext i1 %37 to i32
  br label %onig_is_code_in_cc_len.exit

39:                                               ; preds = %12
  %40 = getelementptr inbounds nuw i8, ptr %2, i64 20
  %41 = lshr i32 %1, 5
  %42 = zext nneg i32 %41 to i64
  %43 = getelementptr inbounds nuw [8 x i32], ptr %40, i64 0, i64 %42
  %44 = load i32, ptr %43, align 4, !tbaa !4
  %45 = and i32 %1, 31
  %46 = lshr i32 %44, %45
  %47 = and i32 %46, 1
  br label %onig_is_code_in_cc_len.exit

onig_is_code_in_cc_len.exit:                      ; preds = %.thread, %._crit_edge.i.i, %32, %39
  %.013.i = phi i32 [ %47, %39 ], [ 0, %.thread ], [ 0, %._crit_edge.i.i ], [ %38, %32 ]
  %48 = getelementptr inbounds nuw i8, ptr %2, i64 16
  %49 = load i32, ptr %48, align 8, !tbaa !122
  %50 = and i32 %49, 1
  %.0.i = xor i32 %50, %.013.i
  br label %51

51:                                               ; preds = %7, %onig_is_code_in_cc_len.exit
  %.07 = phi i32 [ %.0.i, %onig_is_code_in_cc_len.exit ], [ 0, %7 ]
  ret i32 %.07
}